target datalayout = "e-m:e-p270:32:32-p271:32:32-p272:64:64-i64:64-i128:128-f80:128-n8:16:32:64-S128"
target triple = "x86_64-pc-linux-gnu"

%"class.llvm::SmallVectorBase" = type { ptr, i32, i32 }
%"class.llvm::DependenceInfo" = type <{ ptr, ptr, ptr, ptr, i32, i32, i32, [4 x i8] }>
%"class.llvm::SmallBitVector" = type { i64 }
%"class.llvm::BitVector" = type <{ %"class.llvm::SmallVector.291", i32, [4 x i8] }>
%"class.llvm::SmallVector.291" = type { %"class.llvm::SmallVectorImpl.292", %"struct.llvm::SmallVectorStorage.295" }
%"class.llvm::SmallVectorImpl.292" = type { %"class.llvm::SmallVectorTemplateBase.293" }
%"class.llvm::SmallVectorTemplateBase.293" = type { %"class.llvm::SmallVectorTemplateCommon.294" }
%"class.llvm::SmallVectorTemplateCommon.294" = type { %"class.llvm::SmallVectorBase" }
%"struct.llvm::SmallVectorStorage.295" = type { [48 x i8] }

; Function Attrs: mustprogress nounwind uwtable
define linkonce_odr hidden noundef ptr @_ZN4llvm25SmallVectorTemplateCommonImvE5beginEv(ptr noundef nonnull align 8 dereferenceable(16) %0) #1 comdat align 2 {
  %2 = alloca ptr, align 8
  store ptr %0, ptr %2, align 8
  %3 = load ptr, ptr %2, align 8
  %4 = getelementptr inbounds nuw %"class.llvm::SmallVectorBase", ptr %3, i32 0, i32 0
  %5 = load ptr, ptr %4, align 8
  ret ptr %5
}

; Function Attrs: mustprogress nounwind uwtable
define linkonce_odr hidden noundef nonnull align 8 dereferenceable(8) ptr @_ZN4llvm25SmallVectorTemplateCommonImvEixEm(ptr noundef nonnull align 8 dereferenceable(16) %0, i64 noundef %1) #1 comdat align 2 {
  %3 = alloca ptr, align 8
  %4 = alloca i64, align 8
  store ptr %0, ptr %3, align 8
  store i64 %1, ptr %4, align 8
  %5 = load ptr, ptr %3, align 8
  %6 = call noundef ptr @_ZN4llvm25SmallVectorTemplateCommonImvE5beginEv(ptr noundef nonnull align 8 dereferenceable(16) %5)
  %7 = load i64, ptr %4, align 8
  %8 = getelementptr inbounds i64, ptr %6, i64 %7
  ret ptr %8
}

; Function Attrs: mustprogress nounwind uwtable
define linkonce_odr hidden void @_ZN4llvm14SmallBitVector15setSmallRawBitsEm(ptr noundef nonnull align 8 dereferenceable(8) %0, i64 noundef %1) #1 comdat align 2 {
  %3 = alloca ptr, align 8
  %4 = alloca i64, align 8
  store ptr %0, ptr %3, align 8
  store i64 %1, ptr %4, align 8
  %5 = load ptr, ptr %3, align 8
  %6 = load i64, ptr %4, align 8
  %7 = shl i64 %6, 1
  %8 = or i64 %7, 1
  %9 = getelementptr inbounds nuw %"class.llvm::SmallBitVector", ptr %5, i32 0, i32 0
  store i64 %8, ptr %9, align 8
  ret void
}

; Function Attrs: mustprogress nounwind uwtable
define linkonce_odr hidden noundef i64 @_ZNK4llvm14SmallBitVector12getSmallSizeEv(ptr noundef nonnull align 8 dereferenceable(8) %0) #1 comdat align 2 {
  %2 = alloca ptr, align 8
  store ptr %0, ptr %2, align 8
  %3 = load ptr, ptr %2, align 8
  %4 = call noundef i64 @_ZNK4llvm14SmallBitVector15getSmallRawBitsEv(ptr noundef nonnull align 8 dereferenceable(8) %3)
  %5 = lshr i64 %4, 57
  ret i64 %5
}

; Function Attrs: mustprogress nounwind uwtable
define linkonce_odr hidden noundef i64 @_ZNK4llvm14SmallBitVector15getSmallRawBitsEv(ptr noundef nonnull align 8 dereferenceable(8) %0) #1 comdat align 2 {
  %2 = alloca ptr, align 8
  store ptr %0, ptr %2, align 8
  %3 = load ptr, ptr %2, align 8
  %4 = getelementptr inbounds nuw %"class.llvm::SmallBitVector", ptr %3, i32 0, i32 0
  %5 = load i64, ptr %4, align 8
  %6 = lshr i64 %5, 1
  ret i64 %6
}

; Function Attrs: mustprogress nounwind uwtable
define linkonce_odr hidden noundef nonnull align 8 dereferenceable(68) ptr @_ZN4llvm9BitVector3setEj(ptr noundef nonnull align 8 dereferenceable(68) %0, i32 noundef %1) #1 comdat align 2 {
  %3 = alloca ptr, align 8
  %4 = alloca i32, align 4
  store ptr %0, ptr %3, align 8
  store i32 %1, ptr %4, align 4
  %5 = load ptr, ptr %3, align 8
  %6 = load i32, ptr %4, align 4
  %7 = urem i32 %6, 64
  %8 = zext i32 %7 to i64
  %9 = shl i64 1, %8
  %10 = getelementptr inbounds nuw %"class.llvm::BitVector", ptr %5, i32 0, i32 0
  %11 = load i32, ptr %4, align 4
  %12 = udiv i32 %11, 64
  %13 = zext i32 %12 to i64
  %14 = call noundef nonnull align 8 dereferenceable(8) ptr @_ZN4llvm25SmallVectorTemplateCommonImvEixEm(ptr noundef nonnull align 8 dereferenceable(16) %10, i64 noundef %13)
  %15 = load i64, ptr %14, align 8
  %16 = or i64 %15, %9
  store i64 %16, ptr %14, align 8
  ret ptr %5
}

; Function Attrs: mustprogress nounwind uwtable
define linkonce_odr hidden noundef ptr @_ZNK4llvm14SmallBitVector10getPointerEv(ptr noundef nonnull align 8 dereferenceable(8) %0) #1 comdat align 2 {
  %2 = alloca ptr, align 8
  store ptr %0, ptr %2, align 8
  %3 = load ptr, ptr %2, align 8
  %4 = getelementptr inbounds nuw %"class.llvm::SmallBitVector", ptr %3, i32 0, i32 0
  %5 = load i64, ptr %4, align 8
  %6 = inttoptr i64 %5 to ptr
  ret ptr %6
}

; Function Attrs: mustprogress nounwind uwtable
define linkonce_odr hidden void @_ZN4llvm14SmallBitVector12setSmallBitsEm(ptr noundef nonnull align 8 dereferenceable(8) %0, i64 noundef %1) #1 comdat align 2 {
  %3 = alloca ptr, align 8
  %4 = alloca i64, align 8
  store ptr %0, ptr %3, align 8
  store i64 %1, ptr %4, align 8
  %5 = load ptr, ptr %3, align 8
  %6 = load i64, ptr %4, align 8
  %7 = call noundef i64 @_ZNK4llvm14SmallBitVector12getSmallSizeEv(ptr noundef nonnull align 8 dereferenceable(8) %5)
  %8 = shl i64 -1, %7
  %9 = xor i64 %8, -1
  %10 = and i64 %6, %9
  %11 = call noundef i64 @_ZNK4llvm14SmallBitVector12getSmallSizeEv(ptr noundef nonnull align 8 dereferenceable(8) %5)
  %12 = shl i64 %11, 57
  %13 = or i64 %10, %12
  call void @_ZN4llvm14SmallBitVector15setSmallRawBitsEm(ptr noundef nonnull align 8 dereferenceable(8) %5, i64 noundef %13)
  ret void
}

; Function Attrs: mustprogress nounwind uwtable
define linkonce_odr hidden noundef i64 @_ZNK4llvm14SmallBitVector12getSmallBitsEv(ptr noundef nonnull align 8 dereferenceable(8) %0) #1 comdat align 2 {
  %2 = alloca ptr, align 8
  store ptr %0, ptr %2, align 8
  %3 = load ptr, ptr %2, align 8
  %4 = call noundef i64 @_ZNK4llvm14SmallBitVector15getSmallRawBitsEv(ptr noundef nonnull align 8 dereferenceable(8) %3)
  %5 = call noundef i64 @_ZNK4llvm14SmallBitVector12getSmallSizeEv(ptr noundef nonnull align 8 dereferenceable(8) %3)
  %6 = shl i64 -1, %5
  %7 = xor i64 %6, -1
  %8 = and i64 %4, %7
  ret i64 %8
}

; Function Attrs: mustprogress nounwind uwtable
define linkonce_odr hidden noundef zeroext i1 @_ZNK4llvm14SmallBitVector7isSmallEv(ptr noundef nonnull align 8 dereferenceable(8) %0) #1 comdat align 2 {
  %2 = alloca ptr, align 8
  store ptr %0, ptr %2, align 8
  %3 = load ptr, ptr %2, align 8
  %4 = getelementptr inbounds nuw %"class.llvm::SmallBitVector", ptr %3, i32 0, i32 0
  %5 = load i64, ptr %4, align 8
  %6 = and i64 %5, 1
  %7 = icmp ne i64 %6, 0
  ret i1 %7
}

; Function Attrs: mustprogress nounwind uwtable
define linkonce_odr hidden noundef nonnull align 8 dereferenceable(8) ptr @_ZN4llvm14SmallBitVector3setEj(ptr noundef nonnull align 8 dereferenceable(8) %0, i32 noundef %1) #1 comdat align 2 {
  %3 = alloca ptr, align 8
  %4 = alloca i32, align 4
  store ptr %0, ptr %3, align 8
  store i32 %1, ptr %4, align 4
  %5 = load ptr, ptr %3, align 8
  %6 = call noundef zeroext i1 @_ZNK4llvm14SmallBitVector7isSmallEv(ptr noundef nonnull align 8 dereferenceable(8) %5)
  br i1 %6, label %7, label %13

7:                                                ; preds = %2
  %8 = call noundef i64 @_ZNK4llvm14SmallBitVector12getSmallBitsEv(ptr noundef nonnull align 8 dereferenceable(8) %5)
  %9 = load i32, ptr %4, align 4
  %10 = zext i32 %9 to i64
  %11 = shl i64 1, %10
  %12 = or i64 %8, %11
  call void @_ZN4llvm14SmallBitVector12setSmallBitsEm(ptr noundef nonnull align 8 dereferenceable(8) %5, i64 noundef %12)
  br label %17

13:                                               ; preds = %2
  %14 = call noundef ptr @_ZNK4llvm14SmallBitVector10getPointerEv(ptr noundef nonnull align 8 dereferenceable(8) %5)
  %15 = load i32, ptr %4, align 4
  %16 = call noundef nonnull align 8 dereferenceable(68) ptr @_ZN4llvm9BitVector3setEj(ptr noundef nonnull align 8 dereferenceable(68) %14, i32 noundef %15)
  br label %17

17:                                               ; preds = %13, %7
  ret ptr %5
}

; Function Attrs: mustprogress nounwind uwtable
define dso_local void @_ZNK4llvm14DependenceInfo18collectCommonLoopsEPKNS_4SCEVEPKNS_4LoopERNS_14SmallBitVectorE(ptr noundef nonnull align 8 dereferenceable(44) %0, ptr noundef %1, ptr noundef %2, ptr noundef nonnull align 8 dereferenceable(8) %3) #1 align 2 {
  %5 = alloca ptr, align 8
  %6 = alloca ptr, align 8
  %7 = alloca ptr, align 8
  %8 = alloca ptr, align 8
  %9 = alloca i32, align 4
  store ptr %0, ptr %5, align 8
  store ptr %1, ptr %6, align 8
  store ptr %2, ptr %7, align 8
  store ptr %3, ptr %8, align 8
  %10 = load ptr, ptr %5, align 8
  br label %11

11:                                               ; preds = %31, %4
  %12 = load ptr, ptr %7, align 8
  %13 = icmp ne ptr %12, null
  br i1 %13, label %14, label %34

14:                                               ; preds = %11
  %15 = load ptr, ptr %7, align 8
  %16 = call noundef i32 @_ZNK4llvm8LoopBaseINS_10BasicBlockENS_4LoopEE12getLoopDepthEv(ptr noundef nonnull align 8 dereferenceable(152) %15)
  store i32 %16, ptr %9, align 4
  %17 = load i32, ptr %9, align 4
  %18 = getelementptr inbounds nuw %"class.llvm::DependenceInfo", ptr %10, i32 0, i32 4
  %19 = load i32, ptr %18, align 8
  %20 = icmp ule i32 %17, %19
  br i1 %20, label %21, label %31

21:                                               ; preds = %14
  %22 = getelementptr inbounds nuw %"class.llvm::DependenceInfo", ptr %10, i32 0, i32 1
  %23 = load ptr, ptr %22, align 8
  %24 = load ptr, ptr %6, align 8
  %25 = load ptr, ptr %7, align 8
  %26 = call noundef zeroext i1 @_ZN4llvm15ScalarEvolution15isLoopInvariantEPKNS_4SCEVEPKNS_4LoopE(ptr noundef nonnull align 8 dereferenceable(1392) %23, ptr noundef %24, ptr noundef %25)
  br i1 %26, label %31, label %27

27:                                               ; preds = %21
  %28 = load ptr, ptr %8, align 8
  %29 = load i32, ptr %9, align 4
  %30 = call noundef nonnull align 8 dereferenceable(8) ptr @_ZN4llvm14SmallBitVector3setEj(ptr noundef nonnull align 8 dereferenceable(8) %28, i32 noundef %29)
  br label %31

31:                                               ; preds = %27, %21, %14
  %32 = load ptr, ptr %7, align 8
  %33 = call noundef ptr @_ZNK4llvm8LoopBaseINS_10BasicBlockENS_4LoopEE13getParentLoopEv(ptr noundef nonnull align 8 dereferenceable(152) %32)
  store ptr %33, ptr %7, align 8
  br label %11, !llvm.loop !14

34:                                               ; preds = %11
  ret void
}