; Function Attrs: mustprogress nounwind uwtable
define dso_local void @_ZNK4llvm14DependenceInfo18collectCommonLoopsEPKNS_4SCEVEPKNS_4LoopERNS_14SmallBitVectorE(ptr nocapture noundef nonnull readonly align 8 dereferenceable(44) %0, ptr noundef %1, ptr noundef %2, ptr nocapture noundef nonnull align 8 dereferenceable(8) %3) local_unnamed_addr #0 align 2 {
  %.not10 = icmp eq ptr %2, null
  br i1 %.not10, label %._crit_edge, label %.lr.ph

.lr.ph:                                           ; preds = %4
  %5 = getelementptr inbounds nuw i8, ptr %0, i64 32
  %6 = getelementptr inbounds nuw i8, ptr %0, i64 8
  br label %7

7:                                                ; preds = %.lr.ph, %_ZN4llvm14SmallBitVector3setEj.exit
  %.011 = phi ptr [ %2, %.lr.ph ], [ %39, %_ZN4llvm14SmallBitVector3setEj.exit ]
  %8 = tail call noundef i32 @_ZNK4llvm8LoopBaseINS_10BasicBlockENS_4LoopEE12getLoopDepthEv(ptr noundef nonnull align 8 dereferenceable(152) %.011) #23
  %9 = load i32, ptr %5, align 8
  %.not9 = icmp ugt i32 %8, %9
  br i1 %.not9, label %_ZN4llvm14SmallBitVector3setEj.exit, label %10

10:                                               ; preds = %7
  %11 = load ptr, ptr %6, align 8
  %12 = tail call noundef zeroext i1 @_ZN4llvm15ScalarEvolution15isLoopInvariantEPKNS_4SCEVEPKNS_4LoopE(ptr noundef nonnull align 8 dereferenceable(1392) %11, ptr noundef %1, ptr noundef nonnull %.011) #23
  br i1 %12, label %_ZN4llvm14SmallBitVector3setEj.exit, label %13

13:                                               ; preds = %10
  %14 = load i64, ptr %3, align 8
  %15 = and i64 %14, 1
  %.not.i = icmp eq i64 %15, 0
  br i1 %.not.i, label %28, label %16

16:                                               ; preds = %13
  %17 = lshr i64 %14, 1
  %18 = lshr i64 %14, 58
  %19 = shl nsw i64 -1, %18
  %20 = xor i64 %19, -1
  %21 = zext nneg i32 %8 to i64
  %22 = shl nuw i64 1, %21
  %23 = or i64 %17, %22
  %24 = and i64 %23, %20
  %25 = shl nuw i64 %24, 1
  %26 = and i64 %14, -288230376151711743
  %27 = or i64 %25, %26
  store i64 %27, ptr %3, align 8
  br label %_ZN4llvm14SmallBitVector3setEj.exit

28:                                               ; preds = %13
  %29 = inttoptr i64 %14 to ptr
  %30 = and i32 %8, 63
  %31 = zext nneg i32 %30 to i64
  %32 = shl nuw i64 1, %31
  %33 = lshr i32 %8, 6
  %34 = zext nneg i32 %33 to i64
  %35 = load ptr, ptr %29, align 8
  %36 = getelementptr inbounds i64, ptr %35, i64 %34
  %37 = load i64, ptr %36, align 8
  %38 = or i64 %37, %32
  store i64 %38, ptr %36, align 8
  br label %_ZN4llvm14SmallBitVector3setEj.exit

_ZN4llvm14SmallBitVector3setEj.exit:              ; preds = %28, %16, %10, %7
  %39 = tail call noundef ptr @_ZNK4llvm8LoopBaseINS_10BasicBlockENS_4LoopEE13getParentLoopEv(ptr noundef nonnull align 8 dereferenceable(152) %.011) #23
  %.not = icmp eq ptr %39, null
  br i1 %.not, label %._crit_edge, label %7, !llvm.loop !27

._crit_edge:                                      ; preds = %_ZN4llvm14SmallBitVector3setEj.exit, %4
  ret void
}